; Function Attrs: nounwind sspstrong uwtable
define ptr @cJSON_AddArrayToObject(ptr noundef %0, ptr noundef readonly %1) local_unnamed_addr #8 {
  %global_hooks.val.i = load ptr, ptr @global_hooks, align 8, !tbaa !18
  %3 = tail call ptr %global_hooks.val.i(i64 noundef 64) #31
  %.not.i.i = icmp eq ptr %3, null
  br i1 %.not.i.i, label %cJSON_CreateArray.exit.thread, label %cJSON_CreateArray.exit

cJSON_CreateArray.exit:                           ; preds = %2
  tail call void @llvm.memset.p0.i64(ptr noundef nonnull align 8 dereferenceable(64) %3, i8 0, i64 64, i1 false)
  %4 = getelementptr inbounds nuw i8, ptr %3, i64 24
  store i32 32, ptr %4, align 8, !tbaa !11
  %5 = icmp eq ptr %0, null
  %6 = icmp eq ptr %1, null
  %or.cond.i = or i1 %5, %6
  %7 = icmp eq ptr %0, %3
  %or.cond34.i = or i1 %or.cond.i, %7
  br i1 %or.cond34.i, label %cJSON_CreateArray.exit.thread, label %8

8:                                                ; preds = %cJSON_CreateArray.exit
  %9 = tail call i64 @strlen(ptr noundef nonnull readonly dereferenceable(1) %1) #32
  %10 = add i64 %9, 1
  %11 = load ptr, ptr @global_hooks, align 8, !tbaa !18
  %12 = tail call ptr %11(i64 noundef %10) #31
  %13 = icmp eq ptr %12, null
  br i1 %13, label %cJSON_CreateArray.exit.thread, label %14

14:                                               ; preds = %8
  tail call void @llvm.memcpy.p0.p0.i64(ptr nonnull align 1 %12, ptr nonnull readonly align 1 %1, i64 %10, i1 false)
  %15 = load i32, ptr %4, align 8, !tbaa !11
  %16 = and i32 %15, -513
  %17 = and i32 %15, 512
  %.not32.i = icmp eq i32 %17, 0
  br i1 %.not32.i, label %18, label %23

18:                                               ; preds = %14
  %19 = getelementptr inbounds nuw i8, ptr %3, i64 56
  %20 = load ptr, ptr %19, align 8, !tbaa !26
  %.not33.i = icmp eq ptr %20, null
  br i1 %.not33.i, label %23, label %21

21:                                               ; preds = %18
  %22 = load ptr, ptr getelementptr inbounds nuw (i8, ptr @global_hooks, i64 8), align 8, !tbaa !22
  tail call void %22(ptr noundef nonnull %20) #31
  br label %23

23:                                               ; preds = %21, %18, %14
  %24 = getelementptr inbounds nuw i8, ptr %3, i64 56
  store ptr %12, ptr %24, align 8, !tbaa !26
  store i32 %16, ptr %4, align 8, !tbaa !11
  %25 = getelementptr inbounds nuw i8, ptr %0, i64 16
  %26 = load ptr, ptr %25, align 8, !tbaa !25
  %27 = icmp eq ptr %26, null
  br i1 %27, label %28, label %30

28:                                               ; preds = %23
  store ptr %3, ptr %25, align 8, !tbaa !25
  %29 = getelementptr inbounds nuw i8, ptr %3, i64 8
  store ptr %3, ptr %29, align 8, !tbaa !40
  store ptr null, ptr %3, align 8, !tbaa !24
  br label %add_item_to_object.exit

30:                                               ; preds = %23
  %31 = getelementptr inbounds nuw i8, ptr %26, i64 8
  %32 = load ptr, ptr %31, align 8, !tbaa !40
  %.not.i.i6 = icmp eq ptr %32, null
  br i1 %.not.i.i6, label %add_item_to_object.exit, label %33

33:                                               ; preds = %30
  store ptr %3, ptr %32, align 8, !tbaa !24
  %34 = getelementptr inbounds nuw i8, ptr %3, i64 8
  store ptr %32, ptr %34, align 8, !tbaa !40
  store ptr %3, ptr %31, align 8, !tbaa !40
  br label %add_item_to_object.exit

cJSON_CreateArray.exit.thread:                    ; preds = %2, %cJSON_CreateArray.exit, %8
  tail call void @cJSON_Delete(ptr noundef %3)
  br label %add_item_to_object.exit

add_item_to_object.exit:                          ; preds = %33, %30, %28, %cJSON_CreateArray.exit.thread
  %.0 = phi ptr [ null, %cJSON_CreateArray.exit.thread ], [ %3, %28 ], [ %3, %30 ], [ %3, %33 ]
  ret ptr %.0
}